target datalayout = "e-m:e-p270:32:32-p271:32:32-p272:64:64-i64:64-i128:128-f80:128-n8:16:32:64-S128"
target triple = "x86_64-pc-linux-gnu"

%"struct.absl::cord_internal::CordRep" = type { i64, %"class.absl::cord_internal::RefcountAndFlags", i8, [3 x i8] }
%"class.absl::cord_internal::RefcountAndFlags" = type { %"struct.std::atomic" }
%"struct.std::atomic" = type { %"struct.std::__atomic_base" }
%"struct.std::__atomic_base" = type { i32 }
%"class.absl::cord_internal::CordRepBtree" = type { %"struct.absl::cord_internal::CordRep", [6 x ptr] }
%"class.absl::Span.3" = type { ptr, i64 }

; Function Attrs: mustprogress nounwind uwtable
define linkonce_odr dso_local noundef i64 @_ZN4absl13cord_internal18TagToAllocatedSizeEh(i8 noundef zeroext %0) #6 comdat {
  %2 = alloca i8, align 1
  store i8 %0, ptr %2, align 1, !tbaa !23
  %3 = load i8, ptr %2, align 1, !tbaa !23
  %4 = zext i8 %3 to i32
  %5 = icmp sle i32 %4, 66
  br i1 %5, label %6, label %11

6:                                                ; preds = %1
  %7 = load i8, ptr %2, align 1, !tbaa !23
  %8 = zext i8 %7 to i32
  %9 = mul nsw i32 %8, 8
  %10 = sub nsw i32 %9, 16
  br label %31

11:                                               ; preds = %1
  %12 = load i8, ptr %2, align 1, !tbaa !23
  %13 = zext i8 %12 to i32
  %14 = icmp sle i32 %13, 186
  br i1 %14, label %15, label %22

15:                                               ; preds = %11
  %16 = load i8, ptr %2, align 1, !tbaa !23
  %17 = zext i8 %16 to i32
  %18 = mul nsw i32 %17, 64
  %19 = add nsw i32 512, %18
  %20 = sub nsw i32 %19, 128
  %21 = sub nsw i32 %20, 4096
  br label %29

22:                                               ; preds = %11
  %23 = load i8, ptr %2, align 1, !tbaa !23
  %24 = zext i8 %23 to i32
  %25 = mul nsw i32 %24, 4096
  %26 = add nsw i32 8192, %25
  %27 = sub nsw i32 %26, 8192
  %28 = sub nsw i32 %27, 753664
  br label %29

29:                                               ; preds = %22, %15
  %30 = phi i32 [ %21, %15 ], [ %28, %22 ]
  br label %31

31:                                               ; preds = %29, %6
  %32 = phi i32 [ %10, %6 ], [ %30, %29 ]
  %33 = sext i32 %32 to i64
  ret i64 %33
}

; Function Attrs: mustprogress nounwind uwtable
define linkonce_odr dso_local noundef i32 @_ZStanSt12memory_orderSt23__memory_order_modifier(i32 noundef %0, i32 noundef %1) #6 comdat {
  %3 = alloca i32, align 4
  %4 = alloca i32, align 4
  store i32 %0, ptr %3, align 4, !tbaa !67
  store i32 %1, ptr %4, align 4, !tbaa !156
  %5 = load i32, ptr %3, align 4, !tbaa !67
  %6 = load i32, ptr %4, align 4, !tbaa !156
  %7 = and i32 %5, %6
  ret i32 %7
}

; Function Attrs: mustprogress nounwind uwtable
define linkonce_odr dso_local noundef i64 @_ZN4absl13cord_internal11TagToLengthEh(i8 noundef zeroext %0) #6 comdat {
  %2 = alloca i8, align 1
  store i8 %0, ptr %2, align 1, !tbaa !23
  %3 = load i8, ptr %2, align 1, !tbaa !23
  %4 = call noundef i64 @_ZN4absl13cord_internal18TagToAllocatedSizeEh(i8 noundef zeroext %3)
  %5 = sub i64 %4, 13
  ret i64 %5
}

; Function Attrs: alwaysinline mustprogress nounwind uwtable
define linkonce_odr dso_local noundef i32 @_ZNKSt13__atomic_baseIiE4loadESt12memory_order(ptr noundef nonnull align 4 dereferenceable(4) %0, i32 noundef %1) #14 comdat align 2 {
  %3 = alloca ptr, align 8
  %4 = alloca i32, align 4
  %5 = alloca i32, align 4
  %6 = alloca i32, align 4
  store ptr %0, ptr %3, align 8, !tbaa !151
  store i32 %1, ptr %4, align 4, !tbaa !67
  %7 = load ptr, ptr %3, align 8
  call void @llvm.lifetime.start.p0(i64 4, ptr %5) #3
  %8 = load i32, ptr %4, align 4, !tbaa !67
  %9 = call noundef i32 @_ZStanSt12memory_orderSt23__memory_order_modifier(i32 noundef %8, i32 noundef 65535)
  store i32 %9, ptr %5, align 4, !tbaa !67
  br label %10

10:                                               ; preds = %2
  br label %11

11:                                               ; preds = %10
  br label %12

12:                                               ; preds = %11
  br label %13

13:                                               ; preds = %12
  br label %14

14:                                               ; preds = %13
  br label %15

15:                                               ; preds = %14
  %16 = getelementptr inbounds nuw %"struct.std::__atomic_base", ptr %7, i32 0, i32 0
  %17 = load i32, ptr %4, align 4, !tbaa !67
  switch i32 %17, label %18 [
    i32 1, label %20
    i32 2, label %20
    i32 5, label %22
  ]

18:                                               ; preds = %15
  %19 = load atomic i32, ptr %16 monotonic, align 4
  store i32 %19, ptr %6, align 4
  br label %24

20:                                               ; preds = %15, %15
  %21 = load atomic i32, ptr %16 acquire, align 4
  store i32 %21, ptr %6, align 4
  br label %24

22:                                               ; preds = %15
  %23 = load atomic i32, ptr %16 seq_cst, align 4
  store i32 %23, ptr %6, align 4
  br label %24

24:                                               ; preds = %22, %20, %18
  %25 = load i32, ptr %6, align 4, !tbaa !11
  call void @llvm.lifetime.end.p0(i64 4, ptr %5) #3
  ret i32 %25
}

; Function Attrs: mustprogress nounwind uwtable
define linkonce_odr dso_local noundef i64 @_ZNK4absl13cord_internal12CordRepBtree4backEv(ptr noundef nonnull align 8 dereferenceable(64) %0) #6 comdat align 2 {
  %2 = alloca ptr, align 8
  store ptr %0, ptr %2, align 8, !tbaa !4
  %3 = load ptr, ptr %2, align 8
  %4 = getelementptr inbounds nuw %"struct.absl::cord_internal::CordRep", ptr %3, i32 0, i32 3
  %5 = getelementptr inbounds [3 x i8], ptr %4, i64 0, i64 2
  %6 = load i8, ptr %5, align 1, !tbaa !23
  %7 = zext i8 %6 to i64
  %8 = sub i64 %7, 1
  ret i64 %8
}

; Function Attrs: mustprogress nounwind uwtable
define linkonce_odr dso_local noundef i64 @_ZNK4absl13cord_internal12CordRepBtree5beginEv(ptr noundef nonnull align 8 dereferenceable(64) %0) #6 comdat align 2 {
  %2 = alloca ptr, align 8
  store ptr %0, ptr %2, align 8, !tbaa !4
  %3 = load ptr, ptr %2, align 8
  %4 = getelementptr inbounds nuw %"struct.absl::cord_internal::CordRep", ptr %3, i32 0, i32 3
  %5 = getelementptr inbounds [3 x i8], ptr %4, i64 0, i64 1
  %6 = load i8, ptr %5, align 1, !tbaa !23
  %7 = zext i8 %6 to i64
  ret i64 %7
}

; Function Attrs: mustprogress nounwind uwtable
define linkonce_odr dso_local void @_ZN4absl4SpanIcEC2EPcm(ptr noundef nonnull align 8 dereferenceable(16) %0, ptr noundef %1, i64 noundef %2) unnamed_addr #6 comdat align 2 {
  %4 = alloca ptr, align 8
  %5 = alloca ptr, align 8
  %6 = alloca i64, align 8
  store ptr %0, ptr %4, align 8, !tbaa !128
  store ptr %1, ptr %5, align 8, !tbaa !49
  store i64 %2, ptr %6, align 8, !tbaa !19
  %7 = load ptr, ptr %4, align 8
  %8 = getelementptr inbounds nuw %"class.absl::Span.3", ptr %7, i32 0, i32 0
  %9 = load ptr, ptr %5, align 8, !tbaa !49
  store ptr %9, ptr %8, align 8, !tbaa !130
  %10 = getelementptr inbounds nuw %"class.absl::Span.3", ptr %7, i32 0, i32 1
  %11 = load i64, ptr %6, align 8, !tbaa !19
  store i64 %11, ptr %10, align 8, !tbaa !132
  ret void
}

; Function Attrs: mustprogress nounwind uwtable
define linkonce_odr dso_local noundef ptr @_ZN4absl13cord_internal11CordRepFlat4DataEv(ptr noundef nonnull align 8 dereferenceable(16) %0) #6 comdat align 2 {
  %2 = alloca ptr, align 8
  store ptr %0, ptr %2, align 8, !tbaa !56
  %3 = load ptr, ptr %2, align 8
  %4 = getelementptr inbounds nuw %"struct.absl::cord_internal::CordRep", ptr %3, i32 0, i32 3
  %5 = getelementptr inbounds [3 x i8], ptr %4, i64 0, i64 0
  ret ptr %5
}

; Function Attrs: inlinehint mustprogress nounwind uwtable
define linkonce_odr dso_local noundef nonnull align 8 dereferenceable(8) ptr @_ZSt3minImERKT_S2_S2_(ptr noundef nonnull align 8 dereferenceable(8) %0, ptr noundef nonnull align 8 dereferenceable(8) %1) #8 comdat {
  %3 = alloca ptr, align 8
  %4 = alloca ptr, align 8
  %5 = alloca ptr, align 8
  store ptr %0, ptr %4, align 8, !tbaa !92
  store ptr %1, ptr %5, align 8, !tbaa !92
  %6 = load ptr, ptr %5, align 8, !tbaa !92
  %7 = load i64, ptr %6, align 8, !tbaa !19
  %8 = load ptr, ptr %4, align 8, !tbaa !92
  %9 = load i64, ptr %8, align 8, !tbaa !19
  %10 = icmp ult i64 %7, %9
  br i1 %10, label %11, label %13

11:                                               ; preds = %2
  %12 = load ptr, ptr %5, align 8, !tbaa !92
  store ptr %12, ptr %3, align 8
  br label %15

13:                                               ; preds = %2
  %14 = load ptr, ptr %4, align 8, !tbaa !92
  store ptr %14, ptr %3, align 8
  br label %15

15:                                               ; preds = %13, %11
  %16 = load ptr, ptr %3, align 8
  ret ptr %16
}

; Function Attrs: mustprogress uwtable
define linkonce_odr dso_local noundef i64 @_ZNK4absl13cord_internal11CordRepFlat8CapacityEv(ptr noundef nonnull align 8 dereferenceable(16) %0) #4 comdat align 2 {
  %2 = alloca ptr, align 8
  store ptr %0, ptr %2, align 8, !tbaa !56
  %3 = load ptr, ptr %2, align 8
  %4 = getelementptr inbounds nuw %"struct.absl::cord_internal::CordRep", ptr %3, i32 0, i32 2
  %5 = load i8, ptr %4, align 4, !tbaa !79
  %6 = call noundef i64 @_ZN4absl13cord_internal11TagToLengthEh(i8 noundef zeroext %5)
  ret i64 %6
}

; Function Attrs: inlinehint mustprogress nounwind uwtable
define linkonce_odr dso_local noundef ptr @_ZN4absl13cord_internal7CordRep4flatEv(ptr noundef nonnull align 8 dereferenceable(16) %0) #8 comdat align 2 {
  %2 = alloca ptr, align 8
  store ptr %0, ptr %2, align 8, !tbaa !9
  %3 = load ptr, ptr %2, align 8
  ret ptr %3
}

; Function Attrs: mustprogress nounwind uwtable
define linkonce_odr dso_local void @_ZN4absl4SpanIcEC2Ev(ptr noundef nonnull align 8 dereferenceable(16) %0) unnamed_addr #6 comdat align 2 {
  %2 = alloca ptr, align 8
  store ptr %0, ptr %2, align 8, !tbaa !128
  %3 = load ptr, ptr %2, align 8
  call void @_ZN4absl4SpanIcEC2EPcm(ptr noundef nonnull align 8 dereferenceable(16) %3, ptr noundef null, i64 noundef 0) #3
  ret void
}

; Function Attrs: inlinehint mustprogress nounwind uwtable
define linkonce_odr dso_local noundef zeroext i1 @_ZN4absl13cord_internal16RefcountAndFlags5IsOneEv(ptr noundef nonnull align 4 dereferenceable(4) %0) #8 comdat align 2 {
  %2 = alloca ptr, align 8
  store ptr %0, ptr %2, align 8, !tbaa !86
  %3 = load ptr, ptr %2, align 8
  %4 = getelementptr inbounds nuw %"class.absl::cord_internal::RefcountAndFlags", ptr %3, i32 0, i32 0
  %5 = call noundef i32 @_ZNKSt13__atomic_baseIiE4loadESt12memory_order(ptr noundef nonnull align 4 dereferenceable(4) %4, i32 noundef 2) #3
  %6 = icmp eq i32 %5, 2
  ret i1 %6
}

; Function Attrs: inlinehint mustprogress nounwind uwtable
define linkonce_odr dso_local noundef ptr @_ZN4absl13cord_internal7CordRep5btreeEv(ptr noundef nonnull align 8 dereferenceable(16) %0) #8 comdat align 2 {
  %2 = alloca ptr, align 8
  store ptr %0, ptr %2, align 8, !tbaa !9
  %3 = load ptr, ptr %2, align 8
  ret ptr %3
}

; Function Attrs: inlinehint mustprogress uwtable
define linkonce_odr dso_local noundef ptr @_ZNK4absl13cord_internal12CordRepBtree4EdgeENS1_8EdgeTypeE(ptr noundef nonnull align 8 dereferenceable(64) %0, i32 noundef %1) #7 comdat align 2 {
  %3 = alloca ptr, align 8
  %4 = alloca i32, align 4
  store ptr %0, ptr %3, align 8, !tbaa !4
  store i32 %1, ptr %4, align 4, !tbaa !106
  %5 = load ptr, ptr %3, align 8
  %6 = getelementptr inbounds nuw %"class.absl::cord_internal::CordRepBtree", ptr %5, i32 0, i32 1
  %7 = load i32, ptr %4, align 4, !tbaa !106
  %8 = icmp eq i32 %7, 0
  br i1 %8, label %9, label %11

9:                                                ; preds = %2
  %10 = call noundef i64 @_ZNK4absl13cord_internal12CordRepBtree5beginEv(ptr noundef nonnull align 8 dereferenceable(64) %5)
  br label %13

11:                                               ; preds = %2
  %12 = call noundef i64 @_ZNK4absl13cord_internal12CordRepBtree4backEv(ptr noundef nonnull align 8 dereferenceable(64) %5)
  br label %13

13:                                               ; preds = %11, %9
  %14 = phi i64 [ %10, %9 ], [ %12, %11 ]
  %15 = getelementptr inbounds nuw [6 x ptr], ptr %6, i64 0, i64 %14
  %16 = load ptr, ptr %15, align 8, !tbaa !9
  ret ptr %16
}

; Function Attrs: mustprogress nounwind uwtable
define linkonce_odr dso_local noundef i32 @_ZNK4absl13cord_internal12CordRepBtree6heightEv(ptr noundef nonnull align 8 dereferenceable(64) %0) #6 comdat align 2 {
  %2 = alloca ptr, align 8
  store ptr %0, ptr %2, align 8, !tbaa !4
  %3 = load ptr, ptr %2, align 8
  %4 = getelementptr inbounds nuw %"struct.absl::cord_internal::CordRep", ptr %3, i32 0, i32 3
  %5 = getelementptr inbounds [3 x i8], ptr %4, i64 0, i64 0
  %6 = load i8, ptr %5, align 1, !tbaa !23
  %7 = zext i8 %6 to i32
  ret i32 %7
}

; Function Attrs: mustprogress uwtable
define dso_local { ptr, i64 } @_ZN4absl13cord_internal12CordRepBtree19GetAppendBufferSlowEm(ptr noundef nonnull align 8 dereferenceable(64) %0, i64 noundef %1) #4 align 2 {
  %3 = alloca %"class.absl::Span.3", align 8
  %4 = alloca ptr, align 8
  %5 = alloca i64, align 8
  %6 = alloca i32, align 4
  %7 = alloca ptr, align 8
  %8 = alloca [12 x ptr], align 16
  %9 = alloca i32, align 4
  %10 = alloca i32, align 4
  %11 = alloca ptr, align 8
  %12 = alloca i64, align 8
  %13 = alloca i64, align 8
  %14 = alloca i32, align 4
  store ptr %0, ptr %4, align 8, !tbaa !4
  store i64 %1, ptr %5, align 8, !tbaa !19
  %15 = load ptr, ptr %4, align 8
  call void @llvm.lifetime.start.p0(i64 4, ptr %6) #3
  %16 = call noundef i32 @_ZNK4absl13cord_internal12CordRepBtree6heightEv(ptr noundef nonnull align 8 dereferenceable(64) %15)
  store i32 %16, ptr %6, align 4, !tbaa !11
  call void @llvm.lifetime.start.p0(i64 8, ptr %7) #3
  store ptr %15, ptr %7, align 8, !tbaa !4
  call void @llvm.lifetime.start.p0(i64 96, ptr %8) #3
  call void @llvm.lifetime.start.p0(i64 4, ptr %9) #3
  store i32 0, ptr %9, align 4, !tbaa !11
  br label %17

17:                                               ; preds = %35, %2
  %18 = load i32, ptr %9, align 4, !tbaa !11
  %19 = load i32, ptr %6, align 4, !tbaa !11
  %20 = icmp slt i32 %18, %19
  br i1 %20, label %22, label %21

21:                                               ; preds = %17
  store i32 2, ptr %10, align 4
  br label %38

22:                                               ; preds = %17
  %23 = load ptr, ptr %7, align 8, !tbaa !4
  %24 = call noundef ptr @_ZNK4absl13cord_internal12CordRepBtree4EdgeENS1_8EdgeTypeE(ptr noundef nonnull align 8 dereferenceable(64) %23, i32 noundef 1)
  %25 = call noundef ptr @_ZN4absl13cord_internal7CordRep5btreeEv(ptr noundef nonnull align 8 dereferenceable(16) %24)
  store ptr %25, ptr %7, align 8, !tbaa !4
  %26 = load ptr, ptr %7, align 8, !tbaa !4
  %27 = getelementptr inbounds nuw %"struct.absl::cord_internal::CordRep", ptr %26, i32 0, i32 1
  %28 = call noundef zeroext i1 @_ZN4absl13cord_internal16RefcountAndFlags5IsOneEv(ptr noundef nonnull align 4 dereferenceable(4) %27)
  br i1 %28, label %30, label %29

29:                                               ; preds = %22
  call void @_ZN4absl4SpanIcEC2Ev(ptr noundef nonnull align 8 dereferenceable(16) %3) #3
  store i32 1, ptr %10, align 4
  br label %38

30:                                               ; preds = %22
  %31 = load ptr, ptr %7, align 8, !tbaa !4
  %32 = load i32, ptr %9, align 4, !tbaa !11
  %33 = sext i32 %32 to i64
  %34 = getelementptr inbounds [12 x ptr], ptr %8, i64 0, i64 %33
  store ptr %31, ptr %34, align 8, !tbaa !4
  br label %35

35:                                               ; preds = %30
  %36 = load i32, ptr %9, align 4, !tbaa !11
  %37 = add nsw i32 %36, 1
  store i32 %37, ptr %9, align 4, !tbaa !11
  br label %17, !llvm.loop !126

38:                                               ; preds = %29, %21
  call void @llvm.lifetime.end.p0(i64 4, ptr %9) #3
  %39 = load i32, ptr %10, align 4
  switch i32 %39, label %104 [
    i32 2, label %40
  ]

40:                                               ; preds = %38
  call void @llvm.lifetime.start.p0(i64 8, ptr %11) #3
  %41 = load ptr, ptr %7, align 8, !tbaa !4
  %42 = call noundef ptr @_ZNK4absl13cord_internal12CordRepBtree4EdgeENS1_8EdgeTypeE(ptr noundef nonnull align 8 dereferenceable(64) %41, i32 noundef 1)
  store ptr %42, ptr %11, align 8, !tbaa !9
  %43 = load ptr, ptr %11, align 8, !tbaa !9
  %44 = getelementptr inbounds nuw %"struct.absl::cord_internal::CordRep", ptr %43, i32 0, i32 1
  %45 = call noundef zeroext i1 @_ZN4absl13cord_internal16RefcountAndFlags5IsOneEv(ptr noundef nonnull align 4 dereferenceable(4) %44)
  br i1 %45, label %46, label %52

46:                                               ; preds = %40
  %47 = load ptr, ptr %11, align 8, !tbaa !9
  %48 = getelementptr inbounds nuw %"struct.absl::cord_internal::CordRep", ptr %47, i32 0, i32 2
  %49 = load i8, ptr %48, align 4, !tbaa !79
  %50 = zext i8 %49 to i32
  %51 = icmp slt i32 %50, 6
  br i1 %51, label %52, label %53

52:                                               ; preds = %46, %40
  call void @_ZN4absl4SpanIcEC2Ev(ptr noundef nonnull align 8 dereferenceable(16) %3) #3
  store i32 1, ptr %10, align 4
  br label %103

53:                                               ; preds = %46
  call void @llvm.lifetime.start.p0(i64 8, ptr %12) #3
  %54 = load ptr, ptr %11, align 8, !tbaa !9
  %55 = call noundef ptr @_ZN4absl13cord_internal7CordRep4flatEv(ptr noundef nonnull align 8 dereferenceable(16) %54)
  %56 = call noundef i64 @_ZNK4absl13cord_internal11CordRepFlat8CapacityEv(ptr noundef nonnull align 8 dereferenceable(16) %55)
  %57 = load ptr, ptr %11, align 8, !tbaa !9
  %58 = getelementptr inbounds nuw %"struct.absl::cord_internal::CordRep", ptr %57, i32 0, i32 0
  %59 = load i64, ptr %58, align 8, !tbaa !13
  %60 = sub i64 %56, %59
  store i64 %60, ptr %12, align 8, !tbaa !19
  %61 = load i64, ptr %12, align 8, !tbaa !19
  %62 = icmp eq i64 %61, 0
  br i1 %62, label %63, label %64

63:                                               ; preds = %53
  call void @_ZN4absl4SpanIcEC2Ev(ptr noundef nonnull align 8 dereferenceable(16) %3) #3
  store i32 1, ptr %10, align 4
  br label %102

64:                                               ; preds = %53
  call void @llvm.lifetime.start.p0(i64 8, ptr %13) #3
  %65 = call noundef nonnull align 8 dereferenceable(8) ptr @_ZSt3minImERKT_S2_S2_(ptr noundef nonnull align 8 dereferenceable(8) %5, ptr noundef nonnull align 8 dereferenceable(8) %12)
  %66 = load i64, ptr %65, align 8, !tbaa !19
  store i64 %66, ptr %13, align 8, !tbaa !19
  %67 = load ptr, ptr %11, align 8, !tbaa !9
  %68 = call noundef ptr @_ZN4absl13cord_internal7CordRep4flatEv(ptr noundef nonnull align 8 dereferenceable(16) %67)
  %69 = call noundef ptr @_ZN4absl13cord_internal11CordRepFlat4DataEv(ptr noundef nonnull align 8 dereferenceable(16) %68)
  %70 = load ptr, ptr %11, align 8, !tbaa !9
  %71 = getelementptr inbounds nuw %"struct.absl::cord_internal::CordRep", ptr %70, i32 0, i32 0
  %72 = load i64, ptr %71, align 8, !tbaa !13
  %73 = getelementptr inbounds nuw i8, ptr %69, i64 %72
  %74 = load i64, ptr %13, align 8, !tbaa !19
  call void @_ZN4absl4SpanIcEC2EPcm(ptr noundef nonnull align 8 dereferenceable(16) %3, ptr noundef %73, i64 noundef %74) #3
  %75 = load i64, ptr %13, align 8, !tbaa !19
  %76 = load ptr, ptr %11, align 8, !tbaa !9
  %77 = getelementptr inbounds nuw %"struct.absl::cord_internal::CordRep", ptr %76, i32 0, i32 0
  %78 = load i64, ptr %77, align 8, !tbaa !13
  %79 = add i64 %78, %75
  store i64 %79, ptr %77, align 8, !tbaa !13
  %80 = load i64, ptr %13, align 8, !tbaa !19
  %81 = getelementptr inbounds nuw %"struct.absl::cord_internal::CordRep", ptr %15, i32 0, i32 0
  %82 = load i64, ptr %81, align 8, !tbaa !13
  %83 = add i64 %82, %80
  store i64 %83, ptr %81, align 8, !tbaa !13
  call void @llvm.lifetime.start.p0(i64 4, ptr %14) #3
  store i32 0, ptr %14, align 4, !tbaa !11
  br label %84

84:                                               ; preds = %98, %64
  %85 = load i32, ptr %14, align 4, !tbaa !11
  %86 = load i32, ptr %6, align 4, !tbaa !11
  %87 = icmp slt i32 %85, %86
  br i1 %87, label %89, label %88

88:                                               ; preds = %84
  store i32 5, ptr %10, align 4
  call void @llvm.lifetime.end.p0(i64 4, ptr %14) #3
  br label %101

89:                                               ; preds = %84
  %90 = load i64, ptr %13, align 8, !tbaa !19
  %91 = load i32, ptr %14, align 4, !tbaa !11
  %92 = sext i32 %91 to i64
  %93 = getelementptr inbounds [12 x ptr], ptr %8, i64 0, i64 %92
  %94 = load ptr, ptr %93, align 8, !tbaa !4
  %95 = getelementptr inbounds nuw %"struct.absl::cord_internal::CordRep", ptr %94, i32 0, i32 0
  %96 = load i64, ptr %95, align 8, !tbaa !13
  %97 = add i64 %96, %90
  store i64 %97, ptr %95, align 8, !tbaa !13
  br label %98

98:                                               ; preds = %89
  %99 = load i32, ptr %14, align 4, !tbaa !11
  %100 = add nsw i32 %99, 1
  store i32 %100, ptr %14, align 4, !tbaa !11
  br label %84, !llvm.loop !127

101:                                              ; preds = %88
  store i32 1, ptr %10, align 4
  call void @llvm.lifetime.end.p0(i64 8, ptr %13) #3
  br label %102

102:                                              ; preds = %101, %63
  call void @llvm.lifetime.end.p0(i64 8, ptr %12) #3
  br label %103

103:                                              ; preds = %102, %52
  call void @llvm.lifetime.end.p0(i64 8, ptr %11) #3
  br label %104

104:                                              ; preds = %103, %38
  call void @llvm.lifetime.end.p0(i64 96, ptr %8) #3
  call void @llvm.lifetime.end.p0(i64 8, ptr %7) #3
  call void @llvm.lifetime.end.p0(i64 4, ptr %6) #3
  %105 = load { ptr, i64 }, ptr %3, align 8
  ret { ptr, i64 } %105
}