; Function Attrs: mustprogress nofree norecurse nounwind memory(readwrite, inaccessiblemem: none) uwtable
define dso_local { ptr, i64 } @_ZN4absl13cord_internal12CordRepBtree19GetAppendBufferSlowEm(ptr noundef nonnull align 8 captures(none) dereferenceable(64) %0, i64 noundef %1) local_unnamed_addr #10 align 2 {
  %3 = alloca [12 x ptr], align 16
  %4 = getelementptr inbounds nuw i8, ptr %0, i64 13
  %5 = load i8, ptr %4, align 1, !tbaa !4
  call void @llvm.lifetime.start.p0(i64 96, ptr nonnull %3) #20
  %.not37.not = icmp eq i8 %5, 0
  br i1 %.not37.not, label %._crit_edge, label %.lr.ph.preheader

.lr.ph.preheader:                                 ; preds = %2
  %wide.trip.count = zext i8 %5 to i64
  br label %.lr.ph

.lr.ph:                                           ; preds = %.lr.ph.preheader, %16
  %indvars.iv = phi i64 [ 0, %.lr.ph.preheader ], [ %indvars.iv.next, %16 ]
  %.02439 = phi ptr [ %0, %.lr.ph.preheader ], [ %12, %16 ]
  %6 = getelementptr inbounds nuw i8, ptr %.02439, i64 15
  %7 = load i8, ptr %6, align 1
  %8 = zext i8 %7 to i64
  %9 = add nsw i64 %8, -1
  %10 = getelementptr inbounds nuw i8, ptr %.02439, i64 16
  %11 = getelementptr inbounds nuw [6 x ptr], ptr %10, i64 0, i64 %9
  %12 = load ptr, ptr %11, align 8, !tbaa !17
  %13 = getelementptr inbounds nuw i8, ptr %12, i64 8
  %14 = load atomic i32, ptr %13 acquire, align 4
  %15 = icmp eq i32 %14, 2
  br i1 %15, label %16, label %.thread

16:                                               ; preds = %.lr.ph
  %17 = getelementptr inbounds nuw [12 x ptr], ptr %3, i64 0, i64 %indvars.iv
  store ptr %12, ptr %17, align 8, !tbaa !14
  %indvars.iv.next = add nuw nsw i64 %indvars.iv, 1
  %exitcond.not = icmp eq i64 %indvars.iv.next, %wide.trip.count
  br i1 %exitcond.not, label %._crit_edge, label %.lr.ph, !llvm.loop !97

._crit_edge:                                      ; preds = %16, %2
  %.024.lcssa = phi ptr [ %0, %2 ], [ %12, %16 ]
  %18 = getelementptr inbounds nuw i8, ptr %.024.lcssa, i64 15
  %19 = load i8, ptr %18, align 1
  %20 = zext i8 %19 to i64
  %21 = add nsw i64 %20, -1
  %22 = getelementptr inbounds nuw i8, ptr %.024.lcssa, i64 16
  %23 = getelementptr inbounds nuw [6 x ptr], ptr %22, i64 0, i64 %21
  %24 = load ptr, ptr %23, align 8, !tbaa !17
  %25 = getelementptr inbounds nuw i8, ptr %24, i64 8
  %26 = load atomic i32, ptr %25 acquire, align 4
  %27 = icmp eq i32 %26, 2
  br i1 %27, label %28, label %.thread

28:                                               ; preds = %._crit_edge
  %29 = getelementptr inbounds nuw i8, ptr %24, i64 12
  %30 = load i8, ptr %29, align 4, !tbaa !25
  %31 = icmp ult i8 %30, 6
  br i1 %31, label %.thread, label %32

32:                                               ; preds = %28
  %33 = zext i8 %30 to i32
  %34 = icmp ult i8 %30, 67
  %35 = icmp ult i8 %30, -69
  %..i.i.i = select i1 %35, i32 6, i32 12
  %.sink6.i.i.i = select i1 %34, i32 3, i32 %..i.i.i
  %36 = shl nuw nsw i32 %33, %.sink6.i.i.i
  %37 = select i1 %35, i32 -3725, i32 -753677
  %38 = select i1 %34, i32 -29, i32 %37
  %narrow.i.i = add nsw i32 %36, %38
  %39 = sext i32 %narrow.i.i to i64
  %40 = load i64, ptr %24, align 8, !tbaa !7
  %41 = icmp eq i64 %40, %39
  br i1 %41, label %.thread, label %42

42:                                               ; preds = %32
  %43 = sub i64 %39, %40
  %.sroa.speculated = tail call i64 @llvm.umin.i64(i64 %43, i64 %1)
  %44 = getelementptr inbounds nuw i8, ptr %24, i64 13
  %45 = getelementptr inbounds nuw i8, ptr %44, i64 %40
  %46 = add i64 %.sroa.speculated, %40
  store i64 %46, ptr %24, align 8, !tbaa !7
  %47 = load i64, ptr %0, align 8, !tbaa !7
  %48 = add i64 %47, %.sroa.speculated
  store i64 %48, ptr %0, align 8, !tbaa !7
  br i1 %.not37.not, label %.thread, label %.lr.ph42.preheader

.lr.ph42.preheader:                               ; preds = %42
  %wide.trip.count50 = zext i8 %5 to i64
  br label %.lr.ph42

.lr.ph42:                                         ; preds = %.lr.ph42.preheader, %.lr.ph42
  %indvars.iv47 = phi i64 [ 0, %.lr.ph42.preheader ], [ %indvars.iv.next48, %.lr.ph42 ]
  %49 = getelementptr inbounds nuw [12 x ptr], ptr %3, i64 0, i64 %indvars.iv47
  %50 = load ptr, ptr %49, align 8, !tbaa !14
  %51 = load i64, ptr %50, align 8, !tbaa !7
  %52 = add i64 %51, %.sroa.speculated
  store i64 %52, ptr %50, align 8, !tbaa !7
  %indvars.iv.next48 = add nuw nsw i64 %indvars.iv47, 1
  %exitcond51.not = icmp eq i64 %indvars.iv.next48, %wide.trip.count50
  br i1 %exitcond51.not, label %.thread, label %.lr.ph42, !llvm.loop !98

.thread:                                          ; preds = %.lr.ph, %.lr.ph42, %42, %32, %._crit_edge, %28
  %.sroa.5.1 = phi i64 [ 0, %28 ], [ 0, %._crit_edge ], [ 0, %32 ], [ %.sroa.speculated, %42 ], [ %.sroa.speculated, %.lr.ph42 ], [ 0, %.lr.ph ]
  %.sroa.0.1 = phi ptr [ null, %28 ], [ null, %._crit_edge ], [ null, %32 ], [ %45, %42 ], [ %45, %.lr.ph42 ], [ null, %.lr.ph ]
  call void @llvm.lifetime.end.p0(i64 96, ptr nonnull %3) #20
  %.fca.0.insert = insertvalue { ptr, i64 } poison, ptr %.sroa.0.1, 0
  %.fca.1.insert = insertvalue { ptr, i64 } %.fca.0.insert, i64 %.sroa.5.1, 1
  ret { ptr, i64 } %.fca.1.insert
}